; Function Attrs: mustprogress nofree norecurse nosync nounwind willreturn memory(read, argmem: readwrite, inaccessiblemem: none) uwtable
define noundef zeroext i1 @_ZN4base14PickleIterator7ReadIntEPi(ptr noundef nonnull align 8 captures(none) dereferenceable(24) %0, ptr noundef writeonly captures(none) %1) local_unnamed_addr #4 align 2 {
  %3 = getelementptr inbounds nuw i8, ptr %0, i64 16
  %4 = load i64, ptr %3, align 8, !tbaa !22
  %5 = getelementptr inbounds nuw i8, ptr %0, i64 8
  %6 = load i64, ptr %5, align 8, !tbaa !21
  %7 = sub i64 %4, %6
  %8 = icmp ult i64 %7, 4
  %9 = load ptr, ptr %0, align 8
  %10 = getelementptr inbounds nuw i8, ptr %9, i64 %6
  %11 = add i64 %6, 4
  %storemerge.i.i = select i1 %8, i64 %4, i64 %11
  %.0.i.i = select i1 %8, ptr null, ptr %10
  store i64 %storemerge.i.i, ptr %5, align 8, !tbaa !21
  %.not.i = icmp ne ptr %.0.i.i, null
  br i1 %.not.i, label %12, label %_ZN4base14PickleIterator15ReadBuiltinTypeIiEEbPT_.exit

12:                                               ; preds = %2
  %13 = load i32, ptr %.0.i.i, align 4, !tbaa !27
  store i32 %13, ptr %1, align 4, !tbaa !27
  br label %_ZN4base14PickleIterator15ReadBuiltinTypeIiEEbPT_.exit

_ZN4base14PickleIterator15ReadBuiltinTypeIiEEbPT_.exit: ; preds = %2, %12
  ret i1 %.not.i
}